; Function Attrs: null_pointer_is_valid sspstrong uwtable
define internal void @wscbor_expert_add(ptr noundef readonly captures(none) %0, ptr noundef readonly captures(none) %1) #0 {
  %3 = getelementptr inbounds nuw i8, ptr %0, i64 8
  %4 = load ptr, ptr %3, align 8
  %.not = icmp eq ptr %4, null
  %5 = load ptr, ptr %1, align 8
  %6 = getelementptr inbounds nuw i8, ptr %1, i64 8
  %7 = load ptr, ptr %6, align 8
  %8 = load ptr, ptr %0, align 8
  br i1 %.not, label %11, label %9

9:                                                ; preds = %2
  %10 = tail call ptr (ptr, ptr, ptr, ptr, ...) @expert_add_info_format(ptr noundef %5, ptr noundef %7, ptr noundef %8, ptr noundef nonnull @.str.15, ptr noundef nonnull %4)
  br label %13

11:                                               ; preds = %2
  %12 = tail call ptr @expert_add_info(ptr noundef %5, ptr noundef %7, ptr noundef %8)
  br label %13

13:                                               ; preds = %11, %9
  ret void
}